target datalayout = "e-m:e-p270:32:32-p271:32:32-p272:64:64-i64:64-i128:128-f80:128-n8:16:32:64-S128"
target triple = "x86_64-pc-linux-gnu"

%"class.std::__cxx11::basic_string" = type { %"struct.std::__cxx11::basic_string<char>::_Alloc_hider", i64, %union.anon }
%"struct.std::__cxx11::basic_string<char>::_Alloc_hider" = type { ptr }
%union.anon = type { i64, [8 x i8] }
%"class.std::allocator" = type { i8 }
%"struct.cv::aruco::RefineParameters" = type <{ float, float, i8, [3 x i8] }>

@.str.1 = private unnamed_addr constant [138 x i8] c"generated/home/dtcxzyw/WorkSpace/Projects/compilers/llvm-opt-benchmark/bench/opencv/opencv/modules/objdetect/src/aruco/aruco_detector.cpp\00", align 1
@.str.13 = private unnamed_addr constant [25 x i8] c"readNode || writeStorage\00", align 1
@__func__._ZN2cv5arucoL9readWriteERNS0_18DetectorParametersEPKNS_8FileNodeEPNS_11FileStorageE = private unnamed_addr constant [10 x i8] c"readWrite\00", align 1
@.str.34 = private unnamed_addr constant [20 x i8] c"errorCorrectionRate\00", align 1
@.str.43 = private unnamed_addr constant [15 x i8] c"minRepDistance\00", align 1
@.str.44 = private unnamed_addr constant [15 x i8] c"checkAllOrders\00", align 1

; Function Attrs: mustprogress uwtable
define internal noundef zeroext i1 @_ZN2cv5arucoL9readWriteERNS0_16RefineParametersEPKNS_8FileNodeEPNS_11FileStorageE(ptr noundef nonnull align 4 dereferenceable(9) %0, ptr noundef %1, ptr noundef %2) #4 personality ptr @__gxx_personality_v0 {
  %4 = alloca ptr, align 8
  %5 = alloca ptr, align 8
  %6 = alloca ptr, align 8
  %7 = alloca %"class.std::__cxx11::basic_string", align 8
  %8 = alloca %"class.std::allocator", align 1
  %9 = alloca ptr, align 8
  %10 = alloca i32, align 4
  %11 = alloca i8, align 1
  %12 = alloca %"class.std::__cxx11::basic_string", align 8
  %13 = alloca %"class.std::allocator", align 1
  %14 = alloca %"class.std::__cxx11::basic_string", align 8
  %15 = alloca %"class.std::allocator", align 1
  %16 = alloca %"class.std::__cxx11::basic_string", align 8
  %17 = alloca %"class.std::allocator", align 1
  store ptr %0, ptr %4, align 8
  store ptr %1, ptr %5, align 8
  store ptr %2, ptr %6, align 8
  br label %18

18:                                               ; preds = %3
  %19 = load ptr, ptr %5, align 8
  %20 = icmp ne ptr %19, null
  br i1 %20, label %24, label %21

21:                                               ; preds = %18
  %22 = load ptr, ptr %6, align 8
  %23 = icmp ne ptr %22, null
  br i1 %23, label %24, label %25

24:                                               ; preds = %21, %18
  br label %37

25:                                               ; preds = %21
  call void @_ZNSaIcEC1Ev(ptr noundef nonnull align 1 dereferenceable(1) %8) #3
  invoke void @_ZNSt7__cxx1112basic_stringIcSt11char_traitsIcESaIcEEC1EPKcRKS3_(ptr noundef nonnull align 8 dereferenceable(32) %7, ptr noundef @.str.13, ptr noundef nonnull align 1 dereferenceable(1) %8)
          to label %26 unwind label %28

26:                                               ; preds = %25
  invoke void @_ZN2cv5errorEiRKNSt7__cxx1112basic_stringIcSt11char_traitsIcESaIcEEEPKcS9_i(i32 noundef -215, ptr noundef nonnull align 8 dereferenceable(32) %7, ptr noundef @__func__._ZN2cv5arucoL9readWriteERNS0_18DetectorParametersEPKNS_8FileNodeEPNS_11FileStorageE, ptr noundef @.str.1, i32 noundef 83) #19
          to label %27 unwind label %32

27:                                               ; preds = %26
  unreachable

28:                                               ; preds = %25
  %29 = landingpad { ptr, i32 }
          cleanup
  %30 = extractvalue { ptr, i32 } %29, 0
  store ptr %30, ptr %9, align 8
  %31 = extractvalue { ptr, i32 } %29, 1
  store i32 %31, ptr %10, align 4
  br label %36

32:                                               ; preds = %26
  %33 = landingpad { ptr, i32 }
          cleanup
  %34 = extractvalue { ptr, i32 } %33, 0
  store ptr %34, ptr %9, align 8
  %35 = extractvalue { ptr, i32 } %33, 1
  store i32 %35, ptr %10, align 4
  call void @_ZNSt7__cxx1112basic_stringIcSt11char_traitsIcESaIcEED1Ev(ptr noundef nonnull align 8 dereferenceable(32) %7) #3
  br label %36

36:                                               ; preds = %32, %28
  call void @_ZNSaIcED1Ev(ptr noundef nonnull align 1 dereferenceable(1) %8) #3
  br label %110

37:                                               ; preds = %24
  br label %38

38:                                               ; preds = %37
  store i8 0, ptr %11, align 1
  call void @_ZNSaIcEC1Ev(ptr noundef nonnull align 1 dereferenceable(1) %13) #3
  invoke void @_ZNSt7__cxx1112basic_stringIcSt11char_traitsIcESaIcEEC1EPKcRKS3_(ptr noundef nonnull align 8 dereferenceable(32) %12, ptr noundef @.str.43, ptr noundef nonnull align 1 dereferenceable(1) %13)
          to label %39 unwind label %83

39:                                               ; preds = %38
  %40 = load ptr, ptr %4, align 8
  %41 = getelementptr inbounds %"struct.cv::aruco::RefineParameters", ptr %40, i32 0, i32 0
  %42 = load ptr, ptr %5, align 8
  %43 = load ptr, ptr %6, align 8
  %44 = invoke noundef zeroext i1 @_ZN2cv5aruco18readWriteParameterIfEEbRKNSt7__cxx1112basic_stringIcSt11char_traitsIcESaIcEEERT_PKNS_8FileNodeEPNS_11FileStorageE(ptr noundef nonnull align 8 dereferenceable(32) %12, ptr noundef nonnull align 4 dereferenceable(4) %41, ptr noundef %42, ptr noundef %43)
          to label %45 unwind label %87

45:                                               ; preds = %39
  %46 = zext i1 %44 to i32
  %47 = load i8, ptr %11, align 1
  %48 = trunc i8 %47 to i1
  %49 = zext i1 %48 to i32
  %50 = or i32 %49, %46
  %51 = icmp ne i32 %50, 0
  %52 = zext i1 %51 to i8
  store i8 %52, ptr %11, align 1
  call void @_ZNSt7__cxx1112basic_stringIcSt11char_traitsIcESaIcEED1Ev(ptr noundef nonnull align 8 dereferenceable(32) %12) #3
  call void @_ZNSaIcED1Ev(ptr noundef nonnull align 1 dereferenceable(1) %13) #3
  call void @_ZNSaIcEC1Ev(ptr noundef nonnull align 1 dereferenceable(1) %15) #3
  invoke void @_ZNSt7__cxx1112basic_stringIcSt11char_traitsIcESaIcEEC1EPKcRKS3_(ptr noundef nonnull align 8 dereferenceable(32) %14, ptr noundef @.str.34, ptr noundef nonnull align 1 dereferenceable(1) %15)
          to label %53 unwind label %92

53:                                               ; preds = %45
  %54 = load ptr, ptr %4, align 8
  %55 = getelementptr inbounds %"struct.cv::aruco::RefineParameters", ptr %54, i32 0, i32 1
  %56 = load ptr, ptr %5, align 8
  %57 = load ptr, ptr %6, align 8
  %58 = invoke noundef zeroext i1 @_ZN2cv5aruco18readWriteParameterIfEEbRKNSt7__cxx1112basic_stringIcSt11char_traitsIcESaIcEEERT_PKNS_8FileNodeEPNS_11FileStorageE(ptr noundef nonnull align 8 dereferenceable(32) %14, ptr noundef nonnull align 4 dereferenceable(4) %55, ptr noundef %56, ptr noundef %57)
          to label %59 unwind label %96

59:                                               ; preds = %53
  %60 = zext i1 %58 to i32
  %61 = load i8, ptr %11, align 1
  %62 = trunc i8 %61 to i1
  %63 = zext i1 %62 to i32
  %64 = or i32 %63, %60
  %65 = icmp ne i32 %64, 0
  %66 = zext i1 %65 to i8
  store i8 %66, ptr %11, align 1
  call void @_ZNSt7__cxx1112basic_stringIcSt11char_traitsIcESaIcEED1Ev(ptr noundef nonnull align 8 dereferenceable(32) %14) #3
  call void @_ZNSaIcED1Ev(ptr noundef nonnull align 1 dereferenceable(1) %15) #3
  call void @_ZNSaIcEC1Ev(ptr noundef nonnull align 1 dereferenceable(1) %17) #3
  invoke void @_ZNSt7__cxx1112basic_stringIcSt11char_traitsIcESaIcEEC1EPKcRKS3_(ptr noundef nonnull align 8 dereferenceable(32) %16, ptr noundef @.str.44, ptr noundef nonnull align 1 dereferenceable(1) %17)
          to label %67 unwind label %101

67:                                               ; preds = %59
  %68 = load ptr, ptr %4, align 8
  %69 = getelementptr inbounds %"struct.cv::aruco::RefineParameters", ptr %68, i32 0, i32 2
  %70 = load ptr, ptr %5, align 8
  %71 = load ptr, ptr %6, align 8
  %72 = invoke noundef zeroext i1 @_ZN2cv5aruco18readWriteParameterIbEEbRKNSt7__cxx1112basic_stringIcSt11char_traitsIcESaIcEEERT_PKNS_8FileNodeEPNS_11FileStorageE(ptr noundef nonnull align 8 dereferenceable(32) %16, ptr noundef nonnull align 1 dereferenceable(1) %69, ptr noundef %70, ptr noundef %71)
          to label %73 unwind label %105

73:                                               ; preds = %67
  %74 = zext i1 %72 to i32
  %75 = load i8, ptr %11, align 1
  %76 = trunc i8 %75 to i1
  %77 = zext i1 %76 to i32
  %78 = or i32 %77, %74
  %79 = icmp ne i32 %78, 0
  %80 = zext i1 %79 to i8
  store i8 %80, ptr %11, align 1
  call void @_ZNSt7__cxx1112basic_stringIcSt11char_traitsIcESaIcEED1Ev(ptr noundef nonnull align 8 dereferenceable(32) %16) #3
  call void @_ZNSaIcED1Ev(ptr noundef nonnull align 1 dereferenceable(1) %17) #3
  %81 = load i8, ptr %11, align 1
  %82 = trunc i8 %81 to i1
  ret i1 %82

83:                                               ; preds = %38
  %84 = landingpad { ptr, i32 }
          cleanup
  %85 = extractvalue { ptr, i32 } %84, 0
  store ptr %85, ptr %9, align 8
  %86 = extractvalue { ptr, i32 } %84, 1
  store i32 %86, ptr %10, align 4
  br label %91

87:                                               ; preds = %39
  %88 = landingpad { ptr, i32 }
          cleanup
  %89 = extractvalue { ptr, i32 } %88, 0
  store ptr %89, ptr %9, align 8
  %90 = extractvalue { ptr, i32 } %88, 1
  store i32 %90, ptr %10, align 4
  call void @_ZNSt7__cxx1112basic_stringIcSt11char_traitsIcESaIcEED1Ev(ptr noundef nonnull align 8 dereferenceable(32) %12) #3
  br label %91

91:                                               ; preds = %87, %83
  call void @_ZNSaIcED1Ev(ptr noundef nonnull align 1 dereferenceable(1) %13) #3
  br label %110

92:                                               ; preds = %45
  %93 = landingpad { ptr, i32 }
          cleanup
  %94 = extractvalue { ptr, i32 } %93, 0
  store ptr %94, ptr %9, align 8
  %95 = extractvalue { ptr, i32 } %93, 1
  store i32 %95, ptr %10, align 4
  br label %100

96:                                               ; preds = %53
  %97 = landingpad { ptr, i32 }
          cleanup
  %98 = extractvalue { ptr, i32 } %97, 0
  store ptr %98, ptr %9, align 8
  %99 = extractvalue { ptr, i32 } %97, 1
  store i32 %99, ptr %10, align 4
  call void @_ZNSt7__cxx1112basic_stringIcSt11char_traitsIcESaIcEED1Ev(ptr noundef nonnull align 8 dereferenceable(32) %14) #3
  br label %100

100:                                              ; preds = %96, %92
  call void @_ZNSaIcED1Ev(ptr noundef nonnull align 1 dereferenceable(1) %15) #3
  br label %110

101:                                              ; preds = %59
  %102 = landingpad { ptr, i32 }
          cleanup
  %103 = extractvalue { ptr, i32 } %102, 0
  store ptr %103, ptr %9, align 8
  %104 = extractvalue { ptr, i32 } %102, 1
  store i32 %104, ptr %10, align 4
  br label %109

105:                                              ; preds = %67
  %106 = landingpad { ptr, i32 }
          cleanup
  %107 = extractvalue { ptr, i32 } %106, 0
  store ptr %107, ptr %9, align 8
  %108 = extractvalue { ptr, i32 } %106, 1
  store i32 %108, ptr %10, align 4
  call void @_ZNSt7__cxx1112basic_stringIcSt11char_traitsIcESaIcEED1Ev(ptr noundef nonnull align 8 dereferenceable(32) %16) #3
  br label %109

109:                                              ; preds = %105, %101
  call void @_ZNSaIcED1Ev(ptr noundef nonnull align 1 dereferenceable(1) %17) #3
  br label %110

110:                                              ; preds = %109, %100, %91, %36
  %111 = load ptr, ptr %9, align 8
  %112 = load i32, ptr %10, align 4
  %113 = insertvalue { ptr, i32 } poison, ptr %111, 0
  %114 = insertvalue { ptr, i32 } %113, i32 %112, 1
  resume { ptr, i32 } %114
}