; Function Attrs: mustprogress uwtable
define internal fastcc noundef zeroext i1 @_ZN2cv5arucoL9readWriteERNS0_16RefineParametersEPKNS_8FileNodeEPNS_11FileStorageE(ptr noundef nonnull align 4 dereferenceable(9) %0, ptr noundef %1, ptr noundef %2) unnamed_addr #3 personality ptr @__gxx_personality_v0 {
  %4 = alloca %"class.std::__cxx11::basic_string", align 8
  %5 = alloca %"class.std::allocator", align 1
  %6 = alloca %"class.std::__cxx11::basic_string", align 8
  %7 = alloca %"class.std::allocator", align 1
  %8 = alloca %"class.std::__cxx11::basic_string", align 8
  %9 = alloca %"class.std::allocator", align 1
  %10 = alloca %"class.std::__cxx11::basic_string", align 8
  %11 = alloca %"class.std::allocator", align 1
  %12 = icmp ne ptr %1, null
  %13 = icmp ne ptr %2, null
  %or.cond = or i1 %12, %13
  br i1 %or.cond, label %21, label %14

14:                                               ; preds = %3
  call void @_ZNSaIcEC1Ev(ptr noundef nonnull align 1 dereferenceable(1) %5) #27
  invoke void @_ZNSt7__cxx1112basic_stringIcSt11char_traitsIcESaIcEEC1EPKcRKS3_(ptr noundef nonnull align 8 dereferenceable(32) %4, ptr noundef nonnull @.str.13, ptr noundef nonnull align 1 dereferenceable(1) %5)
          to label %15 unwind label %17

15:                                               ; preds = %14
  invoke void @_ZN2cv5errorEiRKNSt7__cxx1112basic_stringIcSt11char_traitsIcESaIcEEEPKcS9_i(i32 noundef -215, ptr noundef nonnull align 8 dereferenceable(32) %4, ptr noundef nonnull @__func__._ZN2cv5arucoL9readWriteERNS0_18DetectorParametersEPKNS_8FileNodeEPNS_11FileStorageE, ptr noundef nonnull @.str.1, i32 noundef 83) #28
          to label %16 unwind label %19

16:                                               ; preds = %15
  unreachable

17:                                               ; preds = %14
  %18 = landingpad { ptr, i32 }
          cleanup
  br label %47

19:                                               ; preds = %15
  %20 = landingpad { ptr, i32 }
          cleanup
  call void @_ZNSt7__cxx1112basic_stringIcSt11char_traitsIcESaIcEED1Ev(ptr noundef nonnull align 8 dereferenceable(32) %4) #27
  br label %47

21:                                               ; preds = %3
  call void @_ZNSaIcEC1Ev(ptr noundef nonnull align 1 dereferenceable(1) %7) #27
  invoke void @_ZNSt7__cxx1112basic_stringIcSt11char_traitsIcESaIcEEC1EPKcRKS3_(ptr noundef nonnull align 8 dereferenceable(32) %6, ptr noundef nonnull @.str.43, ptr noundef nonnull align 1 dereferenceable(1) %7)
          to label %22 unwind label %35

22:                                               ; preds = %21
  %23 = invoke noundef zeroext i1 @_ZN2cv5aruco18readWriteParameterIfEEbRKNSt7__cxx1112basic_stringIcSt11char_traitsIcESaIcEEERT_PKNS_8FileNodeEPNS_11FileStorageE(ptr noundef nonnull align 8 dereferenceable(32) %6, ptr noundef nonnull align 4 dereferenceable(4) %0, ptr noundef %1, ptr noundef %2)
          to label %24 unwind label %37

24:                                               ; preds = %22
  call void @_ZNSt7__cxx1112basic_stringIcSt11char_traitsIcESaIcEED1Ev(ptr noundef nonnull align 8 dereferenceable(32) %6) #27
  call void @_ZNSaIcED1Ev(ptr noundef nonnull align 1 dereferenceable(1) %7) #27
  call void @_ZNSaIcEC1Ev(ptr noundef nonnull align 1 dereferenceable(1) %9) #27
  invoke void @_ZNSt7__cxx1112basic_stringIcSt11char_traitsIcESaIcEEC1EPKcRKS3_(ptr noundef nonnull align 8 dereferenceable(32) %8, ptr noundef nonnull @.str.34, ptr noundef nonnull align 1 dereferenceable(1) %9)
          to label %25 unwind label %39

25:                                               ; preds = %24
  %26 = getelementptr inbounds i8, ptr %0, i64 4
  %27 = invoke noundef zeroext i1 @_ZN2cv5aruco18readWriteParameterIfEEbRKNSt7__cxx1112basic_stringIcSt11char_traitsIcESaIcEEERT_PKNS_8FileNodeEPNS_11FileStorageE(ptr noundef nonnull align 8 dereferenceable(32) %8, ptr noundef nonnull align 4 dereferenceable(4) %26, ptr noundef %1, ptr noundef %2)
          to label %28 unwind label %41

28:                                               ; preds = %25
  call void @_ZNSt7__cxx1112basic_stringIcSt11char_traitsIcESaIcEED1Ev(ptr noundef nonnull align 8 dereferenceable(32) %8) #27
  call void @_ZNSaIcED1Ev(ptr noundef nonnull align 1 dereferenceable(1) %9) #27
  call void @_ZNSaIcEC1Ev(ptr noundef nonnull align 1 dereferenceable(1) %11) #27
  invoke void @_ZNSt7__cxx1112basic_stringIcSt11char_traitsIcESaIcEEC1EPKcRKS3_(ptr noundef nonnull align 8 dereferenceable(32) %10, ptr noundef nonnull @.str.44, ptr noundef nonnull align 1 dereferenceable(1) %11)
          to label %29 unwind label %43

29:                                               ; preds = %28
  %30 = getelementptr inbounds i8, ptr %0, i64 8
  %31 = invoke noundef zeroext i1 @_ZN2cv5aruco18readWriteParameterIbEEbRKNSt7__cxx1112basic_stringIcSt11char_traitsIcESaIcEEERT_PKNS_8FileNodeEPNS_11FileStorageE(ptr noundef nonnull align 8 dereferenceable(32) %10, ptr noundef nonnull align 1 dereferenceable(1) %30, ptr noundef %1, ptr noundef %2)
          to label %32 unwind label %45

32:                                               ; preds = %29
  %33 = or i1 %23, %27
  %34 = or i1 %33, %31
  call void @_ZNSt7__cxx1112basic_stringIcSt11char_traitsIcESaIcEED1Ev(ptr noundef nonnull align 8 dereferenceable(32) %10) #27
  call void @_ZNSaIcED1Ev(ptr noundef nonnull align 1 dereferenceable(1) %11) #27
  ret i1 %34

35:                                               ; preds = %21
  %36 = landingpad { ptr, i32 }
          cleanup
  br label %47

37:                                               ; preds = %22
  %38 = landingpad { ptr, i32 }
          cleanup
  call void @_ZNSt7__cxx1112basic_stringIcSt11char_traitsIcESaIcEED1Ev(ptr noundef nonnull align 8 dereferenceable(32) %6) #27
  br label %47

39:                                               ; preds = %24
  %40 = landingpad { ptr, i32 }
          cleanup
  br label %47

41:                                               ; preds = %25
  %42 = landingpad { ptr, i32 }
          cleanup
  call void @_ZNSt7__cxx1112basic_stringIcSt11char_traitsIcESaIcEED1Ev(ptr noundef nonnull align 8 dereferenceable(32) %8) #27
  br label %47

43:                                               ; preds = %28
  %44 = landingpad { ptr, i32 }
          cleanup
  br label %47

45:                                               ; preds = %29
  %46 = landingpad { ptr, i32 }
          cleanup
  call void @_ZNSt7__cxx1112basic_stringIcSt11char_traitsIcESaIcEED1Ev(ptr noundef nonnull align 8 dereferenceable(32) %10) #27
  br label %47

47:                                               ; preds = %43, %45, %39, %41, %35, %37, %17, %19
  %.sink = phi ptr [ %5, %19 ], [ %5, %17 ], [ %7, %37 ], [ %7, %35 ], [ %9, %41 ], [ %9, %39 ], [ %11, %45 ], [ %11, %43 ]
  %.pn27.pn = phi { ptr, i32 } [ %20, %19 ], [ %18, %17 ], [ %38, %37 ], [ %36, %35 ], [ %42, %41 ], [ %40, %39 ], [ %46, %45 ], [ %44, %43 ]
  call void @_ZNSaIcED1Ev(ptr noundef nonnull align 1 dereferenceable(1) %.sink) #27
  resume { ptr, i32 } %.pn27.pn
}